; Function Attrs: mustprogress uwtable
define void @_ZN6icu_7713DecimalFormat23setMinimumIntegerDigitsEi(ptr noundef nonnull align 8 dereferenceable(72) %0, i32 noundef %1) unnamed_addr #1 align 2 {
  %3 = alloca i32, align 4
  %4 = getelementptr inbounds nuw i8, ptr %0, i64 64
  %5 = load ptr, ptr %4, align 8, !tbaa !25
  %6 = icmp eq ptr %5, null
  br i1 %6, label %18, label %7

7:                                                ; preds = %2
  %8 = getelementptr inbounds nuw i8, ptr %5, i64 120
  %9 = load i32, ptr %8, align 8, !tbaa !194
  %10 = icmp eq i32 %1, %9
  br i1 %10, label %18, label %11

11:                                               ; preds = %7
  %12 = getelementptr inbounds nuw i8, ptr %5, i64 100
  %13 = load i32, ptr %12, align 4, !tbaa !193
  %14 = icmp sgt i32 %13, -1
  %15 = icmp slt i32 %13, %1
  %or.cond = and i1 %14, %15
  br i1 %or.cond, label %16, label %17

16:                                               ; preds = %11
  store i32 %1, ptr %12, align 4, !tbaa !193
  br label %17

17:                                               ; preds = %16, %11
  store i32 %1, ptr %8, align 8, !tbaa !194
  call void @llvm.lifetime.start.p0(i64 4, ptr nonnull %3) #19
  store i32 0, ptr %3, align 4, !tbaa !13
  call void @_ZN6icu_7713DecimalFormat5touchER10UErrorCode(ptr noundef nonnull align 8 dereferenceable(72) %0, ptr noundef nonnull align 4 dereferenceable(4) %3)
  call void @llvm.lifetime.end.p0(i64 4, ptr nonnull %3) #19
  br label %18

18:                                               ; preds = %7, %2, %17
  ret void
}